(dp0
S'spherical_nonabsorbing_0.57'
p1
(dp2
S'g'
p3
(F0.72499999999999998
F0.72199999999999998
F0.71799999999999997
tp4
sS'k'
p5
(F1.03
F1.04
F1.02
tp6
sS'description'
p7
S'(sulfate,'
p8
sS'w'
p9
(F1.0
F1.0
F1.0
tp10
ssS'spherical_absorbing_0.06_ssa_green_0.84'
p11
(dp12
g3
(F0.28599999999999998
F0.35099999999999998
F0.42999999999999999
tp13
sg5
(F0.000263
F0.000464
F0.00087600000000000004
tp14
sg7
S'(sulfate,'
p15
sg9
(F0.81999999999999995
F0.83999999999999997
F0.85999999999999999
tp16
ssS'spherical_absorbing_0.06_ssa_green_0.94'
p17
(dp18
g3
(F0.28699999999999998
F0.35099999999999998
F0.43099999999999999
tp19
sg5
(F0.00023499999999999999
F0.00041899999999999999
F0.00080599999999999997
tp20
sg7
S'(sulfate,'
p21
sg9
(F0.92000000000000004
F0.93999999999999995
F0.94999999999999996
tp22
ssS'spherical_nonabsorbing_0.26'
p23
(dp24
g3
(F0.70299999999999996
F0.71699999999999997
F0.72599999999999998
tp25
sg5
(F0.14999999999999999
F0.182
F0.216
tp26
sg7
S'(sulfate,'
p27
sg9
(F1.0
F1.0
F1.0
tp28
ssS'spherical_absorbing_0.12_ssa_green_0.9'
p29
(dp30
g3
(F0.56399999999999995
F0.61199999999999999
F0.65900000000000003
tp31
sg5
(F0.0095300000000000003
F0.0141
F0.0212
tp32
sg7
S'(sulfate,'
p33
sg9
(F0.88500000000000001
F0.90000000000000002
F0.91100000000000003
tp34
ssS'spherical_absorbing_0.57_ssa_green_0.94'
p35
(dp36
g3
(F0.746
F0.73899999999999999
F0.73199999999999998
tp37
sg5
(F1.02
F1.04
F1.02
tp38
sg7
S'(sulfate,'
p39
sg9
(F0.92000000000000004
F0.93999999999999995
F0.94999999999999996
tp40
ssS'spherical_absorbing_0.12_ssa_green_0.8_rising'
p41
(dp42
g3
(F0.56399999999999995
F0.61399999999999999
F0.66500000000000004
tp43
sg5
(F0.0099299999999999996
F0.0149
F0.022200000000000001
tp44
sg7
S'(sulfate,'
p45
sg9
(F0.82599999999999996
F0.80000000000000004
F0.77900000000000003
tp46
ssS'spherical_nonabsorbing_0.12'
p47
(dp48
g3
(F0.56299999999999994
F0.60899999999999999
F0.65400000000000003
tp49
sg5
(F0.0088500000000000002
F0.0134
F0.0207
tp50
sg7
S'(sulfate,'
p51
sg9
(F1.0
F1.0
F1.0
tp52
ssS'spherical_absorbing_0.12_ssa_0.9_flat'
p53
(dp54
g3
(F0.56399999999999995
F0.61199999999999999
F0.66000000000000003
tp55
sg5
(F0.0094299999999999991
F0.0141
F0.021299999999999999
tp56
sg7
S'(sulfate,'
p57
sg9
(F0.90000000000000002
F0.90000000000000002
F0.90000000000000002
tp58
ssS'spherical_absorbing_0.12_ssa_green_0.9_rising'
p59
(dp60
g3
(F0.56299999999999994
F0.61199999999999999
F0.66000000000000003
tp61
sg5
(F0.0093399999999999993
F0.0141
F0.021399999999999999
tp62
sg7
S'(sulfate,'
p63
sg9
(F0.91500000000000004
F0.90000000000000002
F0.88900000000000001
tp64
ssS'spherical_nonabsorbing_0.06'
p65
(dp66
g3
(F0.28699999999999998
F0.35199999999999998
F0.43099999999999999
tp67
sg5
(F0.00021699999999999999
F0.00039599999999999998
F0.00077200000000000001
tp68
sg7
S'(sulfate,'
p69
sg9
(F1.0
F1.0
F1.0
tp70
ssS'spherical_absorbing_0.26_ssa_green_0.94'
p71
(dp72
g3
(F0.71299999999999997
F0.72699999999999998
F0.73699999999999999
tp73
sg5
(F0.14999999999999999
F0.18099999999999999
F0.214
tp74
sg7
S'(sulfate,'
p75
sg9
(F0.92000000000000004
F0.93999999999999995
F0.94999999999999996
tp76
ssS'spherical_nonabsorbing_1.28'
p77
(dp78
g3
(F0.72099999999999997
F0.72799999999999998
F0.74099999999999999
tp79
sg5
(F4.3499999999999996
F4.1900000000000004
F4.0199999999999996
tp80
sg7
S'(sea'
p81
sg9
(F1.0
F1.0
F1.0
tp82
ssS'spherical_absorbing_0.12_ssa_green_0.74'
p83
(dp84
g3
(F0.56299999999999994
F0.61399999999999999
F0.66500000000000004
tp85
sg5
(F0.0111
F0.0154
F0.022200000000000001
tp86
sg7
S'(sulfate,'
p87
sg9
(F0.68999999999999995
F0.73999999999999999
F0.78000000000000003
tp88
ssS'spherical_absorbing_0.12_ssa_green_0.84'
p89
(dp90
g3
(F0.56399999999999995
F0.61299999999999999
F0.66200000000000003
tp91
sg5
(F0.0099799999999999993
F0.014500000000000001
F0.021600000000000001
tp92
sg7
S'(sulfate,'
p93
sg9
(F0.81999999999999995
F0.83999999999999997
F0.85999999999999999
tp94
ssS'grains_mode1_h1'
p95
(dp96
g3
(F0.72899999999999998
F0.71099999999999997
F0.70499999999999996
tp97
sg5
(F3.3700000000000001
F3.1699999999999999
F2.8399999999999999
tp98
sg7
S'(dust)'
p99
sg9
(F0.99399999999999999
F0.97699999999999998
F0.91900000000000004
tp100
ssS'spherical_absorbing_0.12_ssa_green_0.8'
p101
(dp102
g3
(F0.56399999999999995
F0.61399999999999999
F0.66400000000000003
tp103
sg5
(F0.0103
F0.0149
F0.021899999999999999
tp104
sg7
S'(sulfate,'
p105
sg9
(F0.77300000000000002
F0.80000000000000004
F0.82099999999999995
tp106
ssS'spherical_nonabsorbing_2.80'
p107
(dp108
g3
(F0.76300000000000001
F0.77500000000000002
F0.78600000000000003
tp109
sg5
(F16.5
F16.199999999999999
F15.9
tp110
sg7
S'(sea'
p111
sg9
(F1.0
F1.0
F1.0
tp112
ssS'spherical_absorbing_0.12_ssa_0.8_flat'
p113
(dp114
g3
(F0.56399999999999995
F0.61399999999999999
F0.66400000000000003
tp115
sg5
(F0.0101
F0.0149
F0.021999999999999999
tp116
sg7
S'(sulfate,'
p117
sg9
(F0.80000000000000004
F0.80000000000000004
F0.80000000000000004
tp118
ssS'spherical_absorbing_0.12_ssa_green_0.94'
p119
(dp120
g3
(F0.56299999999999994
F0.61099999999999999
F0.65700000000000003
tp121
sg5
(F0.0093100000000000006
F0.0138
F0.020899999999999998
tp122
sg7
S'(sulfate,'
p123
sg9
(F0.92000000000000004
F0.93999999999999995
F0.94999999999999996
tp124
ssS'spheroidal_mode2_h1'
p125
(dp126
g3
(F0.74099999999999999
F0.77200000000000002
F0.79100000000000004
tp127
sg5
(F15.800000000000001
F15.5
F15.300000000000001
tp128
sg7
S'(dust)'
p129
sg9
(F0.97099999999999997
F0.90200000000000002
F0.81000000000000005
tp130
ss.