(dp0
S'spherical_absorbing_0.06_ssa_green_0.94'
p1
(dp2
S'g'
p3
(F0.287
F0.351
F0.431
tp4
sS'k'
p5
(F0.000235
F0.000419
F0.000806
tp6
sS'description'
p7
S'(sulfate,'
p8
sS'w'
p9
(F0.92
F0.94
F0.95
tp10
ssS'spherical_absorbing_0.12_ssa_green_0.9_rising'
p11
(dp12
g3
(F0.563
F0.612
F0.66
tp13
sg5
(F0.00934
F0.0141
F0.0214
tp14
sg7
S'(sulfate,'
p15
sg9
(F0.915
F0.9
F0.889
tp16
ssS'spherical_absorbing_0.12_ssa_green_0.74'
p17
(dp18
g3
(F0.563
F0.614
F0.665
tp19
sg5
(F0.0111
F0.0154
F0.0222
tp20
sg7
S'(sulfate,'
p21
sg9
(F0.69
F0.74
F0.78
tp22
ssS'spherical_absorbing_0.12_ssa_0.9_flat'
p23
(dp24
g3
(F0.564
F0.612
F0.66
tp25
sg5
(F0.00943
F0.0141
F0.0213
tp26
sg7
S'(sulfate,'
p27
sg9
(F0.9
F0.9
F0.9
tp28
ssS'spherical_nonabsorbing_0.57'
p29
(dp30
g3
(F0.725
F0.722
F0.718
tp31
sg5
(F1.03
F1.04
F1.02
tp32
sg7
S'(sulfate,'
p33
sg9
(F1.0
F1.0
F1.0
tp34
ssS'spherical_nonabsorbing_1.28'
p35
(dp36
g3
(F0.721
F0.728
F0.741
tp37
sg5
(F4.35
F4.19
F4.02
tp38
sg7
S'(sea'
p39
sg9
(F1.0
F1.0
F1.0
tp40
ssS'spherical_nonabsorbing_0.12'
p41
(dp42
g3
(F0.563
F0.609
F0.654
tp43
sg5
(F0.00885
F0.0134
F0.0207
tp44
sg7
S'(sulfate,'
p45
sg9
(F1.0
F1.0
F1.0
tp46
ssS'spherical_absorbing_0.57_ssa_green_0.94'
p47
(dp48
g3
(F0.746
F0.739
F0.732
tp49
sg5
(F1.02
F1.04
F1.02
tp50
sg7
S'(sulfate,'
p51
sg9
(F0.92
F0.94
F0.95
tp52
ssS'spherical_absorbing_0.12_ssa_green_0.84'
p53
(dp54
g3
(F0.564
F0.613
F0.662
tp55
sg5
(F0.00998
F0.0145
F0.0216
tp56
sg7
S'(sulfate,'
p57
sg9
(F0.82
F0.84
F0.86
tp58
ssS'spherical_absorbing_0.26_ssa_green_0.94'
p59
(dp60
g3
(F0.713
F0.727
F0.737
tp61
sg5
(F0.15
F0.181
F0.214
tp62
sg7
S'(sulfate,'
p63
sg9
(F0.92
F0.94
F0.95
tp64
ssS'spherical_absorbing_0.06_ssa_green_0.84'
p65
(dp66
g3
(F0.286
F0.351
F0.43
tp67
sg5
(F0.000263
F0.000464
F0.000876
tp68
sg7
S'(sulfate,'
p69
sg9
(F0.82
F0.84
F0.86
tp70
ssS'spherical_absorbing_0.12_ssa_green_0.8'
p71
(dp72
g3
(F0.564
F0.614
F0.664
tp73
sg5
(F0.0103
F0.0149
F0.0219
tp74
sg7
S'(sulfate,'
p75
sg9
(F0.773
F0.8
F0.821
tp76
ssS'spherical_absorbing_0.12_ssa_green_0.9'
p77
(dp78
g3
(F0.564
F0.612
F0.659
tp79
sg5
(F0.00953
F0.0141
F0.0212
tp80
sg7
S'(sulfate,'
p81
sg9
(F0.885
F0.9
F0.911
tp82
ssS'spherical_absorbing_2.80'
p83
(dp84
g3
(F0.763
F0.775
F0.786
tp85
sg5
(F16.5
F16.2
F15.9
tp86
sg7
S'(sea'
p87
sg9
(F0.69
F0.74
F0.78
tp88
ssS'spherical_absorbing_0.12_ssa_green_0.8_rising'
p89
(dp90
g3
(F0.564
F0.614
F0.665
tp91
sg5
(F0.00993
F0.0149
F0.0222
tp92
sg7
S'(sulfate,'
p93
sg9
(F0.826
F0.8
F0.779
tp94
ssS'spherical_absorbing_0.12_ssa_green_0.94'
p95
(dp96
g3
(F0.563
F0.611
F0.657
tp97
sg5
(F0.00931
F0.0138
F0.0209
tp98
sg7
S'(sulfate,'
p99
sg9
(F0.92
F0.94
F0.95
tp100
ssS'spheroidal_mode2_h1'
p101
(dp102
g3
(F0.741
F0.772
F0.791
tp103
sg5
(F15.8
F15.5
F15.3
tp104
sg7
S'(dust)'
p105
sg9
(F0.971
F0.902
F0.81
tp106
ssS'spherical_nonabsorbing_0.26'
p107
(dp108
g3
(F0.703
F0.717
F0.726
tp109
sg5
(F0.15
F0.182
F0.216
tp110
sg7
S'(sulfate,'
p111
sg9
(F1.0
F1.0
F1.0
tp112
ssS'spherical_nonabsorbing_0.06'
p113
(dp114
g3
(F0.287
F0.352
F0.431
tp115
sg5
(F0.000217
F0.000396
F0.000772
tp116
sg7
S'(sulfate,'
p117
sg9
(F1.0
F1.0
F1.0
tp118
ssS'grains_mode1_h1'
p119
(dp120
g3
(F0.729
F0.711
F0.705
tp121
sg5
(F3.37
F3.17
F2.84
tp122
sg7
S'(dust)'
p123
sg9
(F0.994
F0.977
F0.919
tp124
ssS'spherical_nonabsorbing_2.80'
p125
(dp126
g3
(F0.763
F0.775
F0.786
tp127
sg5
(F16.5
F16.2
F15.9
tp128
sg7
S'(sea'
p129
sg9
(F1.0
F1.0
F1.0
tp130
ssS'spherical_absorbing_0.12_ssa_0.8_flat'
p131
(dp132
g3
(F0.564
F0.614
F0.664
tp133
sg5
(F0.0101
F0.0149
F0.022
tp134
sg7
S'(sulfate,'
p135
sg9
(F0.8
F0.8
F0.8
tp136
ss.