(dp0
S'spherical_absorbing_0.06_ssa_green_0.94'
p1
(dp2
S'scale'
p3
F2.0
sS'min radius'
p4
F0.001
sS'description'
p5
S'spherical_absorbing_0.06_ssa_green_0.94(sulfate,seasalt,organic)'
p6
sS'g'
p7
(F0.287
F0.351
F0.431
tp8
sS'bottom'
p9
F0.0
sS'k'
p10
(F0.000235
F0.000419
F0.000806
tp11
sS'density'
p12
F1.7
sS'top'
p13
F10.0
sS'max radius'
p14
F0.4
sS'char radius'
p15
F0.03
sS'w'
p16
(F0.92
F0.94
F0.95
tp17
sS'char width'
p18
F1.65
ssS'spherical_absorbing_0.12_ssa_green_0.9_rising'
p19
(dp20
g3
F2.0
sg4
F0.001
sg5
S'spherical_absorbing_0.12_ssa_green_0.9_rising(sulfate,seasalt,organic)'
p21
sg7
(F0.563
F0.612
F0.66
tp22
sg9
F0.0
sg10
(F0.00934
F0.0141
F0.0214
tp23
sg12
F1.77
sg13
F10.0
sg14
F0.75
sg15
F0.06
sg16
(F0.915
F0.9
F0.889
tp24
sg18
F1.7
ssS'spherical_absorbing_0.12_ssa_green_0.74'
p25
(dp26
g3
F2.0
sg4
F0.001
sg5
S'spherical_absorbing_0.12_ssa_green_0.74(sulfate,seasalt,organic)'
p27
sg7
(F0.563
F0.614
F0.665
tp28
sg9
F0.0
sg10
(F0.0111
F0.0154
F0.0222
tp29
sg12
F1.77
sg13
F10.0
sg14
F0.75
sg15
F0.06
sg16
(F0.69
F0.74
F0.78
tp30
sg18
F1.7
ssS'spherical_absorbing_0.12_ssa_0.9_flat'
p31
(dp32
g3
F2.0
sg4
F0.001
sg5
S'spherical_absorbing_0.12_ssa_0.9_flat(sulfate,seasalt,organic)'
p33
sg7
(F0.564
F0.612
F0.66
tp34
sg9
F0.0
sg10
(F0.00943
F0.0141
F0.0213
tp35
sg12
F1.77
sg13
F10.0
sg14
F0.75
sg15
F0.06
sg16
(F0.9
F0.9
F0.9
tp36
sg18
F1.7
ssS'spherical_nonabsorbing_0.57'
p37
(dp38
g3
F2.0
sg4
F0.01
sg5
S'spherical_nonabsorbing_0.57(sulfate,seasalt,organic)'
p39
sg7
(F0.725
F0.722
F0.718
tp40
sg9
F0.0
sg10
(F1.03
F1.04
F1.02
tp41
sg12
F1.91
sg13
F10.0
sg14
F4.0
sg15
F0.24
sg16
(F1.0
F1.0
F1.0
tp42
sg18
F1.8
ssS'spherical_nonabsorbing_1.28'
p43
(dp44
g3
F2.0
sg4
F0.01
sg5
S'spherical_nonabsorbing_1.28(seasalt,organic)'
p45
sg7
(F0.721
F0.728
F0.741
tp46
sg9
F0.0
sg10
(F4.35
F4.19
F4.02
tp47
sg12
F1.99
sg13
F10.0
sg14
F8.0
sg15
F0.5
sg16
(F1.0
F1.0
F1.0
tp48
sg18
F1.85
ssS'spherical_nonabsorbing_0.12'
p49
(dp50
g3
F2.0
sg4
F0.001
sg5
S'spherical_nonabsorbing_0.12(sulfate,seasalt,organic)'
p51
sg7
(F0.563
F0.609
F0.654
tp52
sg9
F0.0
sg10
(F0.00885
F0.0134
F0.0207
tp53
sg12
F1.77
sg13
F10.0
sg14
F0.75
sg15
F0.06
sg16
(F1.0
F1.0
F1.0
tp54
sg18
F1.7
ssS'spherical_absorbing_0.57_ssa_green_0.94'
p55
(dp56
g3
F2.0
sg4
F0.01
sg5
S'spherical_absorbing_0.57_ssa_green_0.94(sulfate,seasalt,organic)'
p57
sg7
(F0.746
F0.739
F0.732
tp58
sg9
F0.0
sg10
(F1.02
F1.04
F1.02
tp59
sg12
F1.91
sg13
F10.0
sg14
F4.0
sg15
F0.24
sg16
(F0.92
F0.94
F0.95
tp60
sg18
F1.8
ssS'spherical_absorbing_0.12_ssa_green_0.84'
p61
(dp62
g3
F2.0
sg4
F0.001
sg5
S'spherical_absorbing_0.12_ssa_green_0.84(sulfate,seasalt,organic)'
p63
sg7
(F0.564
F0.613
F0.662
tp64
sg9
F0.0
sg10
(F0.00998
F0.0145
F0.0216
tp65
sg12
F1.77
sg13
F10.0
sg14
F0.75
sg15
F0.06
sg16
(F0.82
F0.84
F0.86
tp66
sg18
F1.7
ssS'spherical_absorbing_0.26_ssa_green_0.94'
p67
(dp68
g3
F2.0
sg4
F0.01
sg5
S'spherical_absorbing_0.26_ssa_green_0.94(sulfate,seasalt,organic)'
p69
sg7
(F0.713
F0.727
F0.737
tp70
sg9
F0.0
sg10
(F0.15
F0.181
F0.214
tp71
sg12
F1.84
sg13
F10.0
sg14
F1.5
sg15
F0.12
sg16
(F0.92
F0.94
F0.95
tp72
sg18
F1.75
ssS'spherical_absorbing_0.06_ssa_green_0.84'
p73
(dp74
g3
F2.0
sg4
F0.001
sg5
S'spherical_absorbing_0.06_ssa_green_0.84(sulfate,seasalt,organic)'
p75
sg7
(F0.286
F0.351
F0.43
tp76
sg9
F0.0
sg10
(F0.000263
F0.000464
F0.000876
tp77
sg12
F1.7
sg13
F10.0
sg14
F0.4
sg15
F0.03
sg16
(F0.82
F0.84
F0.86
tp78
sg18
F1.65
ssS'spherical_absorbing_0.12_ssa_green_0.8'
p79
(dp80
g3
F2.0
sg4
F0.001
sg5
S'spherical_absorbing_0.12_ssa_green_0.8(sulfate,seasalt,organic)'
p81
sg7
(F0.564
F0.614
F0.664
tp82
sg9
F0.0
sg10
(F0.0103
F0.0149
F0.0219
tp83
sg12
F1.77
sg13
F10.0
sg14
F0.75
sg15
F0.06
sg16
(F0.773
F0.8
F0.821
tp84
sg18
F1.7
ssS'spherical_absorbing_0.12_ssa_green_0.9'
p85
(dp86
g3
F2.0
sg4
F0.001
sg5
S'spherical_absorbing_0.12_ssa_green_0.9(sulfate,seasalt,organic)'
p87
sg7
(F0.564
F0.612
F0.659
tp88
sg9
F0.0
sg10
(F0.00953
F0.0141
F0.0212
tp89
sg12
F1.77
sg13
F10.0
sg14
F0.75
sg15
F0.06
sg16
(F0.885
F0.9
F0.911
tp90
sg18
F1.7
ssS'spherical_absorbing_2.80'
p91
(dp92
g3
F2.0
sg4
F0.1
sg5
S'spherical_absorbing_2.80(seasalt,organic)'
p93
sg7
(F0.763
F0.775
F0.786
tp94
sg9
F0.0
sg10
(F16.5
F16.2
F15.9
tp95
sg12
F2.13
sg13
F10.0
sg14
F50.0
sg15
F1.0
sg16
(F0.69
F0.74
F0.78
tp96
sg18
F1.9
ssS'spherical_absorbing_0.12_ssa_green_0.8_rising'
p97
(dp98
g3
F2.0
sg4
F0.001
sg5
S'spherical_absorbing_0.12_ssa_green_0.8_rising(sulfate,seasalt,organic)'
p99
sg7
(F0.564
F0.614
F0.665
tp100
sg9
F0.0
sg10
(F0.00993
F0.0149
F0.0222
tp101
sg12
F1.77
sg13
F10.0
sg14
F0.75
sg15
F0.06
sg16
(F0.826
F0.8
F0.779
tp102
sg18
F1.7
ssS'spherical_nonabsorbing_isotropic_2.80'
p103
(dp104
g3
F2.0
sg4
F0.1
sg5
S'spherical_nonabsorbing_isotropic_2.80(seasalt,organic)'
p105
sg7
(F0.0
F0.0
F0.0
tp106
sg9
F0.0
sg10
(F16.5
F16.2
F15.9
tp107
sg12
F2.13
sg13
F10.0
sg14
F50.0
sg15
F1.0
sg16
(F1.0
F1.0
F1.0
tp108
sg18
F1.9
ssS'spherical_absorbing_0.12_ssa_green_0.94'
p109
(dp110
g3
F2.0
sg4
F0.001
sg5
S'spherical_absorbing_0.12_ssa_green_0.94(sulfate,seasalt,organic)'
p111
sg7
(F0.563
F0.611
F0.657
tp112
sg9
F0.0
sg10
(F0.00931
F0.0138
F0.0209
tp113
sg12
F1.77
sg13
F10.0
sg14
F0.75
sg15
F0.06
sg16
(F0.92
F0.94
F0.95
tp114
sg18
F1.7
ssS'spheroidal_mode2_h1'
p115
(dp116
g3
F10.0
sg4
F0.1
sg5
S'spheroidal_mode2_h1(dust)'
p117
sg7
(F0.741
F0.772
F0.791
tp118
sg9
F3.0
sg10
(F15.8
F15.5
F15.3
tp119
sg12
F2.6
sg13
F6.0
sg14
F6.0
sg15
F1.0
sg16
(F0.971
F0.902
F0.81
tp120
sg18
F2.0
ssS'spherical_nonabsorbing_0.26'
p121
(dp122
g3
F2.0
sg4
F0.01
sg5
S'spherical_nonabsorbing_0.26(sulfate,seasalt,organic)'
p123
sg7
(F0.703
F0.717
F0.726
tp124
sg9
F0.0
sg10
(F0.15
F0.182
F0.216
tp125
sg12
F1.84
sg13
F10.0
sg14
F1.5
sg15
F0.12
sg16
(F1.0
F1.0
F1.0
tp126
sg18
F1.75
ssS'spherical_nonabsorbing_0.06'
p127
(dp128
g3
F2.0
sg4
F0.001
sg5
S'spherical_nonabsorbing_0.06(sulfate,seasalt,organic)'
p129
sg7
(F0.287
F0.352
F0.431
tp130
sg9
F0.0
sg10
(F0.000217
F0.000396
F0.000772
tp131
sg12
F1.7
sg13
F10.0
sg14
F0.4
sg15
F0.03
sg16
(F1.0
F1.0
F1.0
tp132
sg18
F1.65
ssS'grains_mode1_h1'
p133
(dp134
g3
F10.0
sg4
F0.1
sg5
S'grains_mode1_h1(dust)'
p135
sg7
(F0.729
F0.711
F0.705
tp136
sg9
F3.0
sg10
(F3.37
F3.17
F2.84
tp137
sg12
F2.6
sg13
F6.0
sg14
F1.0
sg15
F0.5
sg16
(F0.994
F0.977
F0.919
tp138
sg18
F1.5
ssS'spherical_nonabsorbing_2.80'
p139
(dp140
g3
F2.0
sg4
F0.1
sg5
S'spherical_nonabsorbing_2.80(seasalt,organic)'
p141
sg7
(F0.763
F0.775
F0.786
tp142
sg9
F0.0
sg10
(F16.5
F16.2
F15.9
tp143
sg12
F2.13
sg13
F10.0
sg14
F50.0
sg15
F1.0
sg16
(F1.0
F1.0
F1.0
tp144
sg18
F1.9
ssS'spherical_absorbing_0.12_ssa_0.8_flat'
p145
(dp146
g3
F2.0
sg4
F0.001
sg5
S'spherical_absorbing_0.12_ssa_0.8_flat(sulfate,seasalt,organic)'
p147
sg7
(F0.564
F0.614
F0.664
tp148
sg9
F0.0
sg10
(F0.0101
F0.0149
F0.022
tp149
sg12
F1.77
sg13
F10.0
sg14
F0.75
sg15
F0.06
sg16
(F0.8
F0.8
F0.8
tp150
sg18
F1.7
ss.