(dp0
S'spherical_absorbing_0.06_ssa_green_0.94'
p1
(dp2
S'char_radius'
p3
F0.03
sS'max_radius'
p4
F0.4
sS'scale'
p5
F2.0
sS'description'
p6
S'spherical_absorbing_0.06_ssa_green_0.94(sulfate,seasalt,organic)'
p7
sS'g'
p8
ccopy_reg
_reconstructor
p9
(catmotomo.atmo_utils
ColoredParam
p10
c__builtin__
tuple
p11
(F0.287
F0.351
F0.431
tp12
tp13
Rp14
sS'bottom'
p15
F0.0
sS'k'
p16
g9
(g10
g11
(F2.3499999999999997e-16
F4.19e-16
F8.06e-16
tp17
tp18
Rp19
sS'density'
p20
F1.7
sS'w'
p21
g9
(g10
g11
(F0.92
F0.94
F0.95
tp22
tp23
Rp24
sS'min_radius'
p25
F0.001
sS'refractive_index'
p26
g9
(g10
g11
(c__builtin__
complex
p27
(F1.45
F0.00303
tp28
Rp29
g27
(F1.45
F0.00317
tp30
Rp31
g27
(F1.45
F0.00375
tp32
Rp33
tp34
tp35
Rp36
sS'top'
p37
F10.0
sS'char_width'
p38
F1.65
ssS'spherical_absorbing_0.12_ssa_green_0.9_rising'
p39
(dp40
g3
F0.06
sg4
F0.75
sg5
F2.0
sg6
S'spherical_absorbing_0.12_ssa_green_0.9_rising(sulfate,seasalt,organic)'
p41
sg8
g9
(g10
g11
(F0.563
F0.612
F0.66
tp42
tp43
Rp44
sg15
F0.0
sg16
g9
(g10
g11
(F9.34e-15
F1.41e-14
F2.14e-14
tp45
tp46
Rp47
sg20
F1.77
sg21
g9
(g10
g11
(F0.915
F0.9
F0.889
tp48
tp49
Rp50
sg25
F0.001
sg26
g9
(g10
g11
(g27
(F1.45
F0.0105
tp51
Rp52
g27
(F1.45
F0.0146
tp53
Rp54
g27
(F1.45
F0.0188
tp55
Rp56
tp57
tp58
Rp59
sg37
F10.0
sg38
F1.7
ssS'spherical_absorbing_0.12_ssa_green_0.74'
p60
(dp61
g3
F0.06
sg4
F0.75
sg5
F2.0
sg6
S'spherical_absorbing_0.12_ssa_green_0.74(sulfate,seasalt,organic)'
p62
sg8
g9
(g10
g11
(F0.563
F0.614
F0.665
tp63
tp64
Rp65
sg15
F0.0
sg16
g9
(g10
g11
(F1.11e-14
F1.54e-14
F2.22e-14
tp66
tp67
Rp68
sg20
F1.77
sg21
g9
(g10
g11
(F0.69
F0.74
F0.78
tp69
tp70
Rp71
sg25
F0.001
sg26
g9
(g10
g11
(g27
(F1.45
F0.0493
tp72
Rp73
g27
(F1.45
F0.0454
tp74
Rp75
g27
(F1.45
F0.042
tp76
Rp77
tp78
tp79
Rp80
sg37
F10.0
sg38
F1.7
ssS'spherical_absorbing_0.12_ssa_0.9_flat'
p81
(dp82
g3
F0.06
sg4
F0.75
sg5
F2.0
sg6
S'spherical_absorbing_0.12_ssa_0.9_flat(sulfate,seasalt,organic)'
p83
sg8
g9
(g10
g11
(F0.564
F0.612
F0.66
tp84
tp85
Rp86
sg15
F0.0
sg16
g9
(g10
g11
(F9.429999999999999e-15
F1.41e-14
F2.1299999999999998e-14
tp87
tp88
Rp89
sg20
F1.77
sg21
g9
(g10
g11
(F0.9
F0.9
F0.9
tp90
tp91
Rp92
sg25
F0.001
sg26
g9
(g10
g11
(g27
(F1.45
F0.0126
tp93
Rp94
g27
(F1.45
F0.0146
tp95
Rp96
g27
(F1.45
F0.0167
tp97
Rp98
tp99
tp100
Rp101
sg37
F10.0
sg38
F1.7
ssS'spherical_nonabsorbing_0.57'
p102
(dp103
g3
F0.24
sg4
F4.0
sg5
F2.0
sg6
S'spherical_nonabsorbing_0.57(sulfate,seasalt,organic)'
p104
sg8
g9
(g10
g11
(F0.725
F0.722
F0.718
tp105
tp106
Rp107
sg15
F0.0
sg16
g9
(g10
g11
(F1.03e-12
F1.04e-12
F1.02e-12
tp108
tp109
Rp110
sg20
F1.91
sg21
g9
(g10
g11
(F1.0
F1.0
F1.0
tp111
tp112
Rp113
sg25
F0.01
sg26
g9
(g10
g11
(g27
(F1.45
F0.0
tp114
Rp115
g27
(F1.45
F0.0
tp116
Rp117
g27
(F1.45
F0.0
tp118
Rp119
tp120
tp121
Rp122
sg37
F10.0
sg38
F1.8
ssS'spherical_nonabsorbing_1.28'
p123
(dp124
g3
F0.5
sg4
F8.0
sg5
F2.0
sg6
S'spherical_nonabsorbing_1.28(seasalt,organic)'
p125
sg8
g9
(g10
g11
(F0.721
F0.728
F0.741
tp126
tp127
Rp128
sg15
F0.0
sg16
g9
(g10
g11
(F4.35e-12
F4.1900000000000005e-12
F4.0199999999999994e-12
tp129
tp130
Rp131
sg20
F1.99
sg21
g9
(g10
g11
(F1.0
F1.0
F1.0
tp132
tp133
Rp134
sg25
F0.01
sg26
g9
(g10
g11
(g27
(F1.45
F0.0
tp135
Rp136
g27
(F1.45
F0.0
tp137
Rp138
g27
(F1.45
F0.0
tp139
Rp140
tp141
tp142
Rp143
sg37
F10.0
sg38
F1.85
ssS'spherical_nonabsorbing_0.12'
p144
(dp145
g3
F0.06
sg4
F0.75
sg5
F2.0
sg6
S'spherical_nonabsorbing_0.12(sulfate,seasalt,organic)'
p146
sg8
g9
(g10
g11
(F0.563
F0.609
F0.654
tp147
tp148
Rp149
sg15
F0.0
sg16
g9
(g10
g11
(F8.85e-15
F1.34e-14
F2.07e-14
tp150
tp151
Rp152
sg20
F1.77
sg21
g9
(g10
g11
(F1.0
F1.0
F1.0
tp153
tp154
Rp155
sg25
F0.001
sg26
g9
(g10
g11
(g27
(F1.45
F0.0
tp156
Rp157
g27
(F1.45
F0.0
tp158
Rp159
g27
(F1.45
F0.0
tp160
Rp161
tp162
tp163
Rp164
sg37
F10.0
sg38
F1.7
ssS'spherical_absorbing_0.57_ssa_green_0.94'
p165
(dp166
g3
F0.24
sg4
F4.0
sg5
F2.0
sg6
S'spherical_absorbing_0.57_ssa_green_0.94(sulfate,seasalt,organic)'
p167
sg8
g9
(g10
g11
(F0.746
F0.739
F0.732
tp168
tp169
Rp170
sg15
F0.0
sg16
g9
(g10
g11
(F1.02e-12
F1.04e-12
F1.02e-12
tp171
tp172
Rp173
sg20
F1.91
sg21
g9
(g10
g11
(F0.92
F0.94
F0.95
tp174
tp175
Rp176
sg25
F0.01
sg26
g9
(g10
g11
(g27
(F1.45
F0.0099
tp177
Rp178
g27
(F1.45
F0.006
tp179
Rp180
g27
(F1.45
F0.00385
tp181
Rp182
tp183
tp184
Rp185
sg37
F10.0
sg38
F1.8
ssS'spherical_absorbing_0.12_ssa_green_0.84'
p186
(dp187
g3
F0.06
sg4
F0.75
sg5
F2.0
sg6
S'spherical_absorbing_0.12_ssa_green_0.84(sulfate,seasalt,organic)'
p188
sg8
g9
(g10
g11
(F0.564
F0.613
F0.662
tp189
tp190
Rp191
sg15
F0.0
sg16
g9
(g10
g11
(F9.979999999999999e-15
F1.45e-14
F2.16e-14
tp192
tp193
Rp194
sg20
F1.77
sg21
g9
(g10
g11
(F0.82
F0.84
F0.86
tp195
tp196
Rp197
sg25
F0.001
sg26
g9
(g10
g11
(g27
(F1.45
F0.0245
tp198
Rp199
g27
(F1.45
F0.0249
tp200
Rp201
g27
(F1.45
F0.0244
tp202
Rp203
tp204
tp205
Rp206
sg37
F10.0
sg38
F1.7
ssS'spherical_absorbing_0.26_ssa_green_0.94'
p207
(dp208
g3
F0.12
sg4
F1.5
sg5
F2.0
sg6
S'spherical_absorbing_0.26_ssa_green_0.94(sulfate,seasalt,organic)'
p209
sg8
g9
(g10
g11
(F0.713
F0.727
F0.737
tp210
tp211
Rp212
sg15
F0.0
sg16
g9
(g10
g11
(F1.5e-13
F1.8099999999999999e-13
F2.14e-13
tp213
tp214
Rp215
sg20
F1.84
sg21
g9
(g10
g11
(F0.92
F0.94
F0.95
tp216
tp217
Rp218
sg25
F0.01
sg26
g9
(g10
g11
(g27
(F1.45
F0.0141
tp219
Rp220
g27
(F1.45
F0.0102
tp221
Rp222
g27
(F1.45
F0.0077
tp223
Rp224
tp225
tp226
Rp227
sg37
F10.0
sg38
F1.75
ssS'spherical_absorbing_0.06_ssa_green_0.84'
p228
(dp229
g3
F0.03
sg4
F0.4
sg5
F2.0
sg6
S'spherical_absorbing_0.06_ssa_green_0.84(sulfate,seasalt,organic)'
p230
sg8
g9
(g10
g11
(F0.286
F0.351
F0.43
tp231
tp232
Rp233
sg15
F0.0
sg16
g9
(g10
g11
(F2.63e-16
F4.639999999999999e-16
F8.76e-16
tp234
tp235
Rp236
sg20
F1.7
sg21
g9
(g10
g11
(F0.82
F0.84
F0.86
tp237
tp238
Rp239
sg25
F0.001
sg26
g9
(g10
g11
(g27
(F1.45
F0.00762
tp240
Rp241
g27
(F1.45
F0.0094
tp242
Rp243
g27
(F1.45
F0.0115
tp244
Rp245
tp246
tp247
Rp248
sg37
F10.0
sg38
F1.65
ssS'spherical_absorbing_0.12_ssa_green_0.8'
p249
(dp250
g3
F0.06
sg4
F0.75
sg5
F2.0
sg6
S'spherical_absorbing_0.12_ssa_green_0.8(sulfate,seasalt,organic)'
p251
sg8
g9
(g10
g11
(F0.564
F0.614
F0.664
tp252
tp253
Rp254
sg15
F0.0
sg16
g9
(g10
g11
(F1.03e-14
F1.4899999999999998e-14
F2.19e-14
tp255
tp256
Rp257
sg20
F1.77
sg21
g9
(g10
g11
(F0.773
F0.8
F0.821
tp258
tp259
Rp260
sg25
F0.001
sg26
g9
(g10
g11
(g27
(F1.45
F0.0325
tp261
Rp262
g27
(F1.45
F0.0325
tp263
Rp264
g27
(F1.45
F0.0325
tp265
Rp266
tp267
tp268
Rp269
sg37
F10.0
sg38
F1.7
ssS'spherical_absorbing_0.12_ssa_green_0.9'
p270
(dp271
g3
F0.06
sg4
F0.75
sg5
F2.0
sg6
S'spherical_absorbing_0.12_ssa_green_0.9(sulfate,seasalt,organic)'
p272
sg8
g9
(g10
g11
(F0.564
F0.612
F0.659
tp273
tp274
Rp275
sg15
F0.0
sg16
g9
(g10
g11
(F9.53e-15
F1.41e-14
F2.12e-14
tp276
tp277
Rp278
sg20
F1.77
sg21
g9
(g10
g11
(F0.885
F0.9
F0.911
tp279
tp280
Rp281
sg25
F0.001
sg26
g9
(g10
g11
(g27
(F1.45
F0.0147
tp282
Rp283
g27
(F1.45
F0.0147
tp284
Rp285
g27
(F1.45
F0.0147
tp286
Rp287
tp288
tp289
Rp290
sg37
F10.0
sg38
F1.7
ssS'spherical_absorbing_2.80'
p291
(dp292
g3
F1.0
sg4
F50.0
sg5
F2.0
sg6
S'spherical_absorbing_2.80(seasalt,organic)'
p293
sg8
g9
(g10
g11
(F0.763
F0.775
F0.786
tp294
tp295
Rp296
sg15
F0.0
sg16
g9
(g10
g11
(F1.65e-11
F1.62e-11
F1.59e-11
tp297
tp298
Rp299
sg20
F2.13
sg21
g9
(g10
g11
(F0.69
F0.74
F0.78
tp300
tp301
Rp302
sg25
F0.1
sg26
g9
(g10
g11
(g27
(F1.45
F0.0
tp303
Rp304
g27
(F1.45
F0.0
tp305
Rp306
g27
(F1.45
F0.0
tp307
Rp308
tp309
tp310
Rp311
sg37
F10.0
sg38
F1.9
ssS'spherical_absorbing_0.12_ssa_green_0.8_rising'
p312
(dp313
g3
F0.06
sg4
F0.75
sg5
F2.0
sg6
S'spherical_absorbing_0.12_ssa_green_0.8_rising(sulfate,seasalt,organic)'
p314
sg8
g9
(g10
g11
(F0.564
F0.614
F0.665
tp315
tp316
Rp317
sg15
F0.0
sg16
g9
(g10
g11
(F9.93e-15
F1.4899999999999998e-14
F2.22e-14
tp318
tp319
Rp320
sg20
F1.77
sg21
g9
(g10
g11
(F0.826
F0.8
F0.779
tp321
tp322
Rp323
sg25
F0.001
sg26
g9
(g10
g11
(g27
(F1.45
F0.0235
tp324
Rp325
g27
(F1.45
F0.0325
tp326
Rp327
g27
(F1.45
F0.0422
tp328
Rp329
tp330
tp331
Rp332
sg37
F10.0
sg38
F1.7
ssS'spherical_nonabsorbing_isotropic_2.80'
p333
(dp334
g3
F1.0
sg4
F50.0
sg5
F2.0
sg6
S'spherical_nonabsorbing_isotropic_2.80(seasalt,organic)'
p335
sg8
g9
(g10
g11
(F0.0
F0.0
F0.0
tp336
tp337
Rp338
sg15
F0.0
sg16
g9
(g10
g11
(F1.65e-11
F1.62e-11
F1.59e-11
tp339
tp340
Rp341
sg20
F2.13
sg21
g9
(g10
g11
(F1.0
F1.0
F1.0
tp342
tp343
Rp344
sg25
F0.1
sg26
g9
(g10
g11
(g27
(F1.45
F0.0
tp345
Rp346
g27
(F1.45
F0.0
tp347
Rp348
g27
(F1.45
F0.0
tp349
Rp350
tp351
tp352
Rp353
sg37
F10.0
sg38
F1.9
ssS'spherical_absorbing_0.12_ssa_green_0.94'
p354
(dp355
g3
F0.06
sg4
F0.75
sg5
F2.0
sg6
S'spherical_absorbing_0.12_ssa_green_0.94(sulfate,seasalt,organic)'
p356
sg8
g9
(g10
g11
(F0.563
F0.611
F0.657
tp357
tp358
Rp359
sg15
F0.0
sg16
g9
(g10
g11
(F9.31e-15
F1.38e-14
F2.0899999999999998e-14
tp360
tp361
Rp362
sg20
F1.77
sg21
g9
(g10
g11
(F0.92
F0.94
F0.95
tp363
tp364
Rp365
sg25
F0.001
sg26
g9
(g10
g11
(g27
(F1.45
F0.00986
tp366
Rp367
g27
(F1.45
F0.00846
tp368
Rp369
g27
(F1.45
F0.00795
tp370
Rp371
tp372
tp373
Rp374
sg37
F10.0
sg38
F1.7
ssS'spheroidal_mode2_h1'
p375
(dp376
g3
F1.0
sg4
F6.0
sg5
F10.0
sg6
S'spheroidal_mode2_h1(dust)'
p377
sg8
g9
(g10
g11
(F0.741
F0.772
F0.791
tp378
tp379
Rp380
sg15
F3.0
sg16
g9
(g10
g11
(F1.58e-11
F1.5499999999999998e-11
F1.53e-11
tp381
tp382
Rp383
sg20
F2.6
sg21
g9
(g10
g11
(F0.971
F0.902
F0.81
tp384
tp385
Rp386
sg25
F0.1
sg26
g9
(g10
g11
(g27
(F1.51
F0.00065
tp387
Rp388
g27
(F1.51
F0.0021
tp389
Rp390
g27
(F1.51
F0.00411
tp391
Rp392
tp393
tp394
Rp395
sg37
F6.0
sg38
F2.0
ssS'spherical_nonabsorbing_0.26'
p396
(dp397
g3
F0.12
sg4
F1.5
sg5
F2.0
sg6
S'spherical_nonabsorbing_0.26(sulfate,seasalt,organic)'
p398
sg8
g9
(g10
g11
(F0.703
F0.717
F0.726
tp399
tp400
Rp401
sg15
F0.0
sg16
g9
(g10
g11
(F1.5e-13
F1.8199999999999998e-13
F2.16e-13
tp402
tp403
Rp404
sg20
F1.84
sg21
g9
(g10
g11
(F1.0
F1.0
F1.0
tp405
tp406
Rp407
sg25
F0.01
sg26
g9
(g10
g11
(g27
(F1.45
F0.0
tp408
Rp409
g27
(F1.45
F0.0
tp410
Rp411
g27
(F1.45
F0.0
tp412
Rp413
tp414
tp415
Rp416
sg37
F10.0
sg38
F1.75
ssS'spherical_nonabsorbing_0.06'
p417
(dp418
g3
F0.03
sg4
F0.4
sg5
F2.0
sg6
S'spherical_nonabsorbing_0.06(sulfate,seasalt,organic)'
p419
sg8
g9
(g10
g11
(F0.287
F0.352
F0.431
tp420
tp421
Rp422
sg15
F0.0
sg16
g9
(g10
g11
(F2.1699999999999998e-16
F3.96e-16
F7.72e-16
tp423
tp424
Rp425
sg20
F1.7
sg21
g9
(g10
g11
(F1.0
F1.0
F1.0
tp426
tp427
Rp428
sg25
F0.001
sg26
g9
(g10
g11
(g27
(F1.45
F0.0
tp429
Rp430
g27
(F1.45
F0.0
tp431
Rp432
g27
(F1.45
F0.0
tp433
Rp434
tp435
tp436
Rp437
sg37
F10.0
sg38
F1.65
ssS'grains_mode1_h1'
p438
(dp439
g3
F0.5
sg4
F1.0
sg5
F10.0
sg6
S'grains_mode1_h1(dust)'
p440
sg8
g9
(g10
g11
(F0.729
F0.711
F0.705
tp441
tp442
Rp443
sg15
F3.0
sg16
g9
(g10
g11
(F3.37e-12
F3.17e-12
F2.8399999999999996e-12
tp444
tp445
Rp446
sg20
F2.6
sg21
g9
(g10
g11
(F0.994
F0.977
F0.919
tp447
tp448
Rp449
sg25
F0.1
sg26
g9
(g10
g11
(g27
(F1.51
F0.00065
tp450
Rp451
g27
(F1.51
F0.0021
tp452
Rp453
g27
(F1.5
F0.0041
tp454
Rp455
tp456
tp457
Rp458
sg37
F6.0
sg38
F1.5
ssS'spherical_nonabsorbing_2.80'
p459
(dp460
g3
F1.0
sg4
F50.0
sg5
F2.0
sg6
S'spherical_nonabsorbing_2.80(seasalt,organic)'
p461
sg8
g9
(g10
g11
(F0.763
F0.775
F0.786
tp462
tp463
Rp464
sg15
F0.0
sg16
g9
(g10
g11
(F1.65e-11
F1.62e-11
F1.59e-11
tp465
tp466
Rp467
sg20
F2.13
sg21
g9
(g10
g11
(F1.0
F1.0
F1.0
tp468
tp469
Rp470
sg25
F0.1
sg26
g9
(g10
g11
(g27
(F1.45
F0.0
tp471
Rp472
g27
(F1.45
F0.0
tp473
Rp474
g27
(F1.45
F0.0
tp475
Rp476
tp477
tp478
Rp479
sg37
F10.0
sg38
F1.9
ssS'spherical_absorbing_0.12_ssa_0.8_flat'
p480
(dp481
g3
F0.06
sg4
F0.75
sg5
F2.0
sg6
S'spherical_absorbing_0.12_ssa_0.8_flat(sulfate,seasalt,organic)'
p482
sg8
g9
(g10
g11
(F0.564
F0.614
F0.664
tp483
tp484
Rp485
sg15
F0.0
sg16
g9
(g10
g11
(F1.01e-14
F1.4899999999999998e-14
F2.1999999999999998e-14
tp486
tp487
Rp488
sg20
F1.77
sg21
g9
(g10
g11
(F0.8
F0.8
F0.8
tp489
tp490
Rp491
sg25
F0.001
sg26
g9
(g10
g11
(g27
(F1.45
F0.0279
tp492
Rp493
g27
(F1.45
F0.0325
tp494
Rp495
g27
(F1.45
F0.0373
tp496
Rp497
tp498
tp499
Rp500
sg37
F10.0
sg38
F1.7
ss.