(dp0
S'spherical_absorbing_0.06_ssa_green_0.94'
p1
(dp2
S'scale'
p3
F2.0
sS'min radius'
p4
F0.001
sS'description'
p5
S'spherical_absorbing_0.06_ssa_green_0.94(sulfate,seasalt,organic)'
p6
sS'g'
p7
ccopy_reg
_reconstructor
p8
(catmotomo.atmo_utils
ColoredParam
p9
c__builtin__
tuple
p10
(F0.287
F0.351
F0.431
tp11
tp12
Rp13
sS'bottom'
p14
F0.0
sS'refractive index'
p15
g8
(g9
g10
(c__builtin__
complex
p16
(F1.45
F0.00303
tp17
Rp18
g16
(F1.45
F0.00317
tp19
Rp20
g16
(F1.45
F0.00375
tp21
Rp22
tp23
tp24
Rp25
sS'k'
p26
g8
(g9
g10
(F0.000235
F0.000419
F0.000806
tp27
tp28
Rp29
sS'density'
p30
F1.7
sS'top'
p31
F10.0
sS'max radius'
p32
F0.4
sS'char radius'
p33
F0.03
sS'w'
p34
g8
(g9
g10
(F0.92
F0.94
F0.95
tp35
tp36
Rp37
sS'char width'
p38
F1.65
ssS'spherical_absorbing_0.12_ssa_green_0.9_rising'
p39
(dp40
g3
F2.0
sg4
F0.001
sg5
S'spherical_absorbing_0.12_ssa_green_0.9_rising(sulfate,seasalt,organic)'
p41
sg7
g8
(g9
g10
(F0.563
F0.612
F0.66
tp42
tp43
Rp44
sg14
F0.0
sg15
g8
(g9
g10
(g16
(F1.45
F0.0105
tp45
Rp46
g16
(F1.45
F0.0146
tp47
Rp48
g16
(F1.45
F0.0188
tp49
Rp50
tp51
tp52
Rp53
sg26
g8
(g9
g10
(F0.00934
F0.0141
F0.0214
tp54
tp55
Rp56
sg30
F1.77
sg31
F10.0
sg32
F0.75
sg33
F0.06
sg34
g8
(g9
g10
(F0.915
F0.9
F0.889
tp57
tp58
Rp59
sg38
F1.7
ssS'spherical_absorbing_0.12_ssa_green_0.74'
p60
(dp61
g3
F2.0
sg4
F0.001
sg5
S'spherical_absorbing_0.12_ssa_green_0.74(sulfate,seasalt,organic)'
p62
sg7
g8
(g9
g10
(F0.563
F0.614
F0.665
tp63
tp64
Rp65
sg14
F0.0
sg15
g8
(g9
g10
(g16
(F1.45
F0.0493
tp66
Rp67
g16
(F1.45
F0.0454
tp68
Rp69
g16
(F1.45
F0.042
tp70
Rp71
tp72
tp73
Rp74
sg26
g8
(g9
g10
(F0.0111
F0.0154
F0.0222
tp75
tp76
Rp77
sg30
F1.77
sg31
F10.0
sg32
F0.75
sg33
F0.06
sg34
g8
(g9
g10
(F0.69
F0.74
F0.78
tp78
tp79
Rp80
sg38
F1.7
ssS'spherical_absorbing_0.12_ssa_0.9_flat'
p81
(dp82
g3
F2.0
sg4
F0.001
sg5
S'spherical_absorbing_0.12_ssa_0.9_flat(sulfate,seasalt,organic)'
p83
sg7
g8
(g9
g10
(F0.564
F0.612
F0.66
tp84
tp85
Rp86
sg14
F0.0
sg15
g8
(g9
g10
(g16
(F1.45
F0.0126
tp87
Rp88
g16
(F1.45
F0.0146
tp89
Rp90
g16
(F1.45
F0.0167
tp91
Rp92
tp93
tp94
Rp95
sg26
g8
(g9
g10
(F0.00943
F0.0141
F0.0213
tp96
tp97
Rp98
sg30
F1.77
sg31
F10.0
sg32
F0.75
sg33
F0.06
sg34
g8
(g9
g10
(F0.9
F0.9
F0.9
tp99
tp100
Rp101
sg38
F1.7
ssS'spherical_nonabsorbing_0.57'
p102
(dp103
g3
F2.0
sg4
F0.01
sg5
S'spherical_nonabsorbing_0.57(sulfate,seasalt,organic)'
p104
sg7
g8
(g9
g10
(F0.725
F0.722
F0.718
tp105
tp106
Rp107
sg14
F0.0
sg15
g8
(g9
g10
(g16
(F1.45
F0.0
tp108
Rp109
g16
(F1.45
F0.0
tp110
Rp111
g16
(F1.45
F0.0
tp112
Rp113
tp114
tp115
Rp116
sg26
g8
(g9
g10
(F1.03
F1.04
F1.02
tp117
tp118
Rp119
sg30
F1.91
sg31
F10.0
sg32
F4.0
sg33
F0.24
sg34
g8
(g9
g10
(F1.0
F1.0
F1.0
tp120
tp121
Rp122
sg38
F1.8
ssS'spherical_nonabsorbing_1.28'
p123
(dp124
g3
F2.0
sg4
F0.01
sg5
S'spherical_nonabsorbing_1.28(seasalt,organic)'
p125
sg7
g8
(g9
g10
(F0.721
F0.728
F0.741
tp126
tp127
Rp128
sg14
F0.0
sg15
g8
(g9
g10
(g16
(F1.45
F0.0
tp129
Rp130
g16
(F1.45
F0.0
tp131
Rp132
g16
(F1.45
F0.0
tp133
Rp134
tp135
tp136
Rp137
sg26
g8
(g9
g10
(F4.35
F4.19
F4.02
tp138
tp139
Rp140
sg30
F1.99
sg31
F10.0
sg32
F8.0
sg33
F0.5
sg34
g8
(g9
g10
(F1.0
F1.0
F1.0
tp141
tp142
Rp143
sg38
F1.85
ssS'spherical_nonabsorbing_0.12'
p144
(dp145
g3
F2.0
sg4
F0.001
sg5
S'spherical_nonabsorbing_0.12(sulfate,seasalt,organic)'
p146
sg7
g8
(g9
g10
(F0.563
F0.609
F0.654
tp147
tp148
Rp149
sg14
F0.0
sg15
g8
(g9
g10
(g16
(F1.45
F0.0
tp150
Rp151
g16
(F1.45
F0.0
tp152
Rp153
g16
(F1.45
F0.0
tp154
Rp155
tp156
tp157
Rp158
sg26
g8
(g9
g10
(F0.00885
F0.0134
F0.0207
tp159
tp160
Rp161
sg30
F1.77
sg31
F10.0
sg32
F0.75
sg33
F0.06
sg34
g8
(g9
g10
(F1.0
F1.0
F1.0
tp162
tp163
Rp164
sg38
F1.7
ssS'spherical_absorbing_0.57_ssa_green_0.94'
p165
(dp166
g3
F2.0
sg4
F0.01
sg5
S'spherical_absorbing_0.57_ssa_green_0.94(sulfate,seasalt,organic)'
p167
sg7
g8
(g9
g10
(F0.746
F0.739
F0.732
tp168
tp169
Rp170
sg14
F0.0
sg15
g8
(g9
g10
(g16
(F1.45
F0.0099
tp171
Rp172
g16
(F1.45
F0.006
tp173
Rp174
g16
(F1.45
F0.00385
tp175
Rp176
tp177
tp178
Rp179
sg26
g8
(g9
g10
(F1.02
F1.04
F1.02
tp180
tp181
Rp182
sg30
F1.91
sg31
F10.0
sg32
F4.0
sg33
F0.24
sg34
g8
(g9
g10
(F0.92
F0.94
F0.95
tp183
tp184
Rp185
sg38
F1.8
ssS'spherical_absorbing_0.12_ssa_green_0.84'
p186
(dp187
g3
F2.0
sg4
F0.001
sg5
S'spherical_absorbing_0.12_ssa_green_0.84(sulfate,seasalt,organic)'
p188
sg7
g8
(g9
g10
(F0.564
F0.613
F0.662
tp189
tp190
Rp191
sg14
F0.0
sg15
g8
(g9
g10
(g16
(F1.45
F0.0245
tp192
Rp193
g16
(F1.45
F0.0249
tp194
Rp195
g16
(F1.45
F0.0244
tp196
Rp197
tp198
tp199
Rp200
sg26
g8
(g9
g10
(F0.00998
F0.0145
F0.0216
tp201
tp202
Rp203
sg30
F1.77
sg31
F10.0
sg32
F0.75
sg33
F0.06
sg34
g8
(g9
g10
(F0.82
F0.84
F0.86
tp204
tp205
Rp206
sg38
F1.7
ssS'spherical_absorbing_0.26_ssa_green_0.94'
p207
(dp208
g3
F2.0
sg4
F0.01
sg5
S'spherical_absorbing_0.26_ssa_green_0.94(sulfate,seasalt,organic)'
p209
sg7
g8
(g9
g10
(F0.713
F0.727
F0.737
tp210
tp211
Rp212
sg14
F0.0
sg15
g8
(g9
g10
(g16
(F1.45
F0.0141
tp213
Rp214
g16
(F1.45
F0.0102
tp215
Rp216
g16
(F1.45
F0.0077
tp217
Rp218
tp219
tp220
Rp221
sg26
g8
(g9
g10
(F0.15
F0.181
F0.214
tp222
tp223
Rp224
sg30
F1.84
sg31
F10.0
sg32
F1.5
sg33
F0.12
sg34
g8
(g9
g10
(F0.92
F0.94
F0.95
tp225
tp226
Rp227
sg38
F1.75
ssS'spherical_absorbing_0.06_ssa_green_0.84'
p228
(dp229
g3
F2.0
sg4
F0.001
sg5
S'spherical_absorbing_0.06_ssa_green_0.84(sulfate,seasalt,organic)'
p230
sg7
g8
(g9
g10
(F0.286
F0.351
F0.43
tp231
tp232
Rp233
sg14
F0.0
sg15
g8
(g9
g10
(g16
(F1.45
F0.00762
tp234
Rp235
g16
(F1.45
F0.0094
tp236
Rp237
g16
(F1.45
F0.0115
tp238
Rp239
tp240
tp241
Rp242
sg26
g8
(g9
g10
(F0.000263
F0.000464
F0.000876
tp243
tp244
Rp245
sg30
F1.7
sg31
F10.0
sg32
F0.4
sg33
F0.03
sg34
g8
(g9
g10
(F0.82
F0.84
F0.86
tp246
tp247
Rp248
sg38
F1.65
ssS'spherical_absorbing_0.12_ssa_green_0.8'
p249
(dp250
g3
F2.0
sg4
F0.001
sg5
S'spherical_absorbing_0.12_ssa_green_0.8(sulfate,seasalt,organic)'
p251
sg7
g8
(g9
g10
(F0.564
F0.614
F0.664
tp252
tp253
Rp254
sg14
F0.0
sg15
g8
(g9
g10
(g16
(F1.45
F0.0325
tp255
Rp256
g16
(F1.45
F0.0325
tp257
Rp258
g16
(F1.45
F0.0325
tp259
Rp260
tp261
tp262
Rp263
sg26
g8
(g9
g10
(F0.0103
F0.0149
F0.0219
tp264
tp265
Rp266
sg30
F1.77
sg31
F10.0
sg32
F0.75
sg33
F0.06
sg34
g8
(g9
g10
(F0.773
F0.8
F0.821
tp267
tp268
Rp269
sg38
F1.7
ssS'spherical_absorbing_0.12_ssa_green_0.9'
p270
(dp271
g3
F2.0
sg4
F0.001
sg5
S'spherical_absorbing_0.12_ssa_green_0.9(sulfate,seasalt,organic)'
p272
sg7
g8
(g9
g10
(F0.564
F0.612
F0.659
tp273
tp274
Rp275
sg14
F0.0
sg15
g8
(g9
g10
(g16
(F1.45
F0.0147
tp276
Rp277
g16
(F1.45
F0.0147
tp278
Rp279
g16
(F1.45
F0.0147
tp280
Rp281
tp282
tp283
Rp284
sg26
g8
(g9
g10
(F0.00953
F0.0141
F0.0212
tp285
tp286
Rp287
sg30
F1.77
sg31
F10.0
sg32
F0.75
sg33
F0.06
sg34
g8
(g9
g10
(F0.885
F0.9
F0.911
tp288
tp289
Rp290
sg38
F1.7
ssS'spherical_absorbing_2.80'
p291
(dp292
g3
F2.0
sg4
F0.1
sg5
S'spherical_absorbing_2.80(seasalt,organic)'
p293
sg7
g8
(g9
g10
(F0.763
F0.775
F0.786
tp294
tp295
Rp296
sg14
F0.0
sg15
g8
(g9
g10
(g16
(F1.45
F0.0
tp297
Rp298
g16
(F1.45
F0.0
tp299
Rp300
g16
(F1.45
F0.0
tp301
Rp302
tp303
tp304
Rp305
sg26
g8
(g9
g10
(F16.5
F16.2
F15.9
tp306
tp307
Rp308
sg30
F2.13
sg31
F10.0
sg32
F50.0
sg33
F1.0
sg34
g8
(g9
g10
(F0.69
F0.74
F0.78
tp309
tp310
Rp311
sg38
F1.9
ssS'spherical_absorbing_0.12_ssa_green_0.8_rising'
p312
(dp313
g3
F2.0
sg4
F0.001
sg5
S'spherical_absorbing_0.12_ssa_green_0.8_rising(sulfate,seasalt,organic)'
p314
sg7
g8
(g9
g10
(F0.564
F0.614
F0.665
tp315
tp316
Rp317
sg14
F0.0
sg15
g8
(g9
g10
(g16
(F1.45
F0.0235
tp318
Rp319
g16
(F1.45
F0.0325
tp320
Rp321
g16
(F1.45
F0.0422
tp322
Rp323
tp324
tp325
Rp326
sg26
g8
(g9
g10
(F0.00993
F0.0149
F0.0222
tp327
tp328
Rp329
sg30
F1.77
sg31
F10.0
sg32
F0.75
sg33
F0.06
sg34
g8
(g9
g10
(F0.826
F0.8
F0.779
tp330
tp331
Rp332
sg38
F1.7
ssS'spherical_nonabsorbing_isotropic_2.80'
p333
(dp334
g3
F2.0
sg4
F0.1
sg5
S'spherical_nonabsorbing_isotropic_2.80(seasalt,organic)'
p335
sg7
g8
(g9
g10
(F0.0
F0.0
F0.0
tp336
tp337
Rp338
sg14
F0.0
sg15
g8
(g9
g10
(g16
(F1.45
F0.0
tp339
Rp340
g16
(F1.45
F0.0
tp341
Rp342
g16
(F1.45
F0.0
tp343
Rp344
tp345
tp346
Rp347
sg26
g8
(g9
g10
(F16.5
F16.2
F15.9
tp348
tp349
Rp350
sg30
F2.13
sg31
F10.0
sg32
F50.0
sg33
F1.0
sg34
g8
(g9
g10
(F1.0
F1.0
F1.0
tp351
tp352
Rp353
sg38
F1.9
ssS'spherical_absorbing_0.12_ssa_green_0.94'
p354
(dp355
g3
F2.0
sg4
F0.001
sg5
S'spherical_absorbing_0.12_ssa_green_0.94(sulfate,seasalt,organic)'
p356
sg7
g8
(g9
g10
(F0.563
F0.611
F0.657
tp357
tp358
Rp359
sg14
F0.0
sg15
g8
(g9
g10
(g16
(F1.45
F0.00986
tp360
Rp361
g16
(F1.45
F0.00846
tp362
Rp363
g16
(F1.45
F0.00795
tp364
Rp365
tp366
tp367
Rp368
sg26
g8
(g9
g10
(F0.00931
F0.0138
F0.0209
tp369
tp370
Rp371
sg30
F1.77
sg31
F10.0
sg32
F0.75
sg33
F0.06
sg34
g8
(g9
g10
(F0.92
F0.94
F0.95
tp372
tp373
Rp374
sg38
F1.7
ssS'spheroidal_mode2_h1'
p375
(dp376
g3
F10.0
sg4
F0.1
sg5
S'spheroidal_mode2_h1(dust)'
p377
sg7
g8
(g9
g10
(F0.741
F0.772
F0.791
tp378
tp379
Rp380
sg14
F3.0
sg15
g8
(g9
g10
(g16
(F1.51
F0.00065
tp381
Rp382
g16
(F1.51
F0.0021
tp383
Rp384
g16
(F1.51
F0.00411
tp385
Rp386
tp387
tp388
Rp389
sg26
g8
(g9
g10
(F15.8
F15.5
F15.3
tp390
tp391
Rp392
sg30
F2.6
sg31
F6.0
sg32
F6.0
sg33
F1.0
sg34
g8
(g9
g10
(F0.971
F0.902
F0.81
tp393
tp394
Rp395
sg38
F2.0
ssS'spherical_nonabsorbing_0.26'
p396
(dp397
g3
F2.0
sg4
F0.01
sg5
S'spherical_nonabsorbing_0.26(sulfate,seasalt,organic)'
p398
sg7
g8
(g9
g10
(F0.703
F0.717
F0.726
tp399
tp400
Rp401
sg14
F0.0
sg15
g8
(g9
g10
(g16
(F1.45
F0.0
tp402
Rp403
g16
(F1.45
F0.0
tp404
Rp405
g16
(F1.45
F0.0
tp406
Rp407
tp408
tp409
Rp410
sg26
g8
(g9
g10
(F0.15
F0.182
F0.216
tp411
tp412
Rp413
sg30
F1.84
sg31
F10.0
sg32
F1.5
sg33
F0.12
sg34
g8
(g9
g10
(F1.0
F1.0
F1.0
tp414
tp415
Rp416
sg38
F1.75
ssS'spherical_nonabsorbing_0.06'
p417
(dp418
g3
F2.0
sg4
F0.001
sg5
S'spherical_nonabsorbing_0.06(sulfate,seasalt,organic)'
p419
sg7
g8
(g9
g10
(F0.287
F0.352
F0.431
tp420
tp421
Rp422
sg14
F0.0
sg15
g8
(g9
g10
(g16
(F1.45
F0.0
tp423
Rp424
g16
(F1.45
F0.0
tp425
Rp426
g16
(F1.45
F0.0
tp427
Rp428
tp429
tp430
Rp431
sg26
g8
(g9
g10
(F0.000217
F0.000396
F0.000772
tp432
tp433
Rp434
sg30
F1.7
sg31
F10.0
sg32
F0.4
sg33
F0.03
sg34
g8
(g9
g10
(F1.0
F1.0
F1.0
tp435
tp436
Rp437
sg38
F1.65
ssS'grains_mode1_h1'
p438
(dp439
g3
F10.0
sg4
F0.1
sg5
S'grains_mode1_h1(dust)'
p440
sg7
g8
(g9
g10
(F0.729
F0.711
F0.705
tp441
tp442
Rp443
sg14
F3.0
sg15
g8
(g9
g10
(g16
(F1.51
F0.00065
tp444
Rp445
g16
(F1.51
F0.0021
tp446
Rp447
g16
(F1.5
F0.0041
tp448
Rp449
tp450
tp451
Rp452
sg26
g8
(g9
g10
(F3.37
F3.17
F2.84
tp453
tp454
Rp455
sg30
F2.6
sg31
F6.0
sg32
F1.0
sg33
F0.5
sg34
g8
(g9
g10
(F0.994
F0.977
F0.919
tp456
tp457
Rp458
sg38
F1.5
ssS'spherical_nonabsorbing_2.80'
p459
(dp460
g3
F2.0
sg4
F0.1
sg5
S'spherical_nonabsorbing_2.80(seasalt,organic)'
p461
sg7
g8
(g9
g10
(F0.763
F0.775
F0.786
tp462
tp463
Rp464
sg14
F0.0
sg15
g8
(g9
g10
(g16
(F1.45
F0.0
tp465
Rp466
g16
(F1.45
F0.0
tp467
Rp468
g16
(F1.45
F0.0
tp469
Rp470
tp471
tp472
Rp473
sg26
g8
(g9
g10
(F16.5
F16.2
F15.9
tp474
tp475
Rp476
sg30
F2.13
sg31
F10.0
sg32
F50.0
sg33
F1.0
sg34
g8
(g9
g10
(F1.0
F1.0
F1.0
tp477
tp478
Rp479
sg38
F1.9
ssS'spherical_absorbing_0.12_ssa_0.8_flat'
p480
(dp481
g3
F2.0
sg4
F0.001
sg5
S'spherical_absorbing_0.12_ssa_0.8_flat(sulfate,seasalt,organic)'
p482
sg7
g8
(g9
g10
(F0.564
F0.614
F0.664
tp483
tp484
Rp485
sg14
F0.0
sg15
g8
(g9
g10
(g16
(F1.45
F0.0279
tp486
Rp487
g16
(F1.45
F0.0325
tp488
Rp489
g16
(F1.45
F0.0373
tp490
Rp491
tp492
tp493
Rp494
sg26
g8
(g9
g10
(F0.0101
F0.0149
F0.022
tp495
tp496
Rp497
sg30
F1.77
sg31
F10.0
sg32
F0.75
sg33
F0.06
sg34
g8
(g9
g10
(F0.8
F0.8
F0.8
tp498
tp499
Rp500
sg38
F1.7
ss.