(dp0
S'spherical_absorbing_0.06_ssa_green_0.94'
p1
(dp2
S'char_radius'
p3
F0.03
sS'max_radius'
p4
F0.4
sS'scale'
p5
F2.0
sS'description'
p6
S'spherical_absorbing_0.06_ssa_green_0.94(sulfate,seasalt,organic)'
p7
sS'g'
p8
ccopy_reg
_reconstructor
p9
(catmotomo.atmo_utils
ColoredParam
p10
c__builtin__
tuple
p11
(F0.287
F0.351
F0.431
tp12
tp13
Rp14
sS'bottom'
p15
F0.0
sS'effective_radius'
p16
F0.06
sS'k'
p17
g9
(g10
g11
(F2.3499999999999997e-16
F4.19e-16
F8.06e-16
tp18
tp19
Rp20
sS'density'
p21
F1.7
sS'w'
p22
g9
(g10
g11
(F0.92
F0.94
F0.95
tp23
tp24
Rp25
sS'min_radius'
p26
F0.001
sS'refractive_index'
p27
g9
(g10
g11
(c__builtin__
complex
p28
(F1.45
F-0.00303
tp29
Rp30
g28
(F1.45
F-0.00317
tp31
Rp32
g28
(F1.45
F-0.00375
tp33
Rp34
tp35
tp36
Rp37
sS'top'
p38
F10.0
sS'char_width'
p39
F1.65
ssS'spherical_absorbing_0.12_ssa_green_0.9_rising'
p40
(dp41
g3
F0.06
sg4
F0.75
sg5
F2.0
sg6
S'spherical_absorbing_0.12_ssa_green_0.9_rising(sulfate,seasalt,organic)'
p42
sg8
g9
(g10
g11
(F0.563
F0.612
F0.66
tp43
tp44
Rp45
sg15
F0.0
sg16
F0.12
sg17
g9
(g10
g11
(F9.34e-15
F1.41e-14
F2.14e-14
tp46
tp47
Rp48
sg21
F1.77
sg22
g9
(g10
g11
(F0.915
F0.9
F0.889
tp49
tp50
Rp51
sg26
F0.001
sg27
g9
(g10
g11
(g28
(F1.45
F-0.0105
tp52
Rp53
g28
(F1.45
F-0.0146
tp54
Rp55
g28
(F1.45
F-0.0188
tp56
Rp57
tp58
tp59
Rp60
sg38
F10.0
sg39
F1.7
ssS'spherical_absorbing_0.12_ssa_green_0.74'
p61
(dp62
g3
F0.06
sg4
F0.75
sg5
F2.0
sg6
S'spherical_absorbing_0.12_ssa_green_0.74(sulfate,seasalt,organic)'
p63
sg8
g9
(g10
g11
(F0.563
F0.614
F0.665
tp64
tp65
Rp66
sg15
F0.0
sg16
F0.12
sg17
g9
(g10
g11
(F1.11e-14
F1.54e-14
F2.22e-14
tp67
tp68
Rp69
sg21
F1.77
sg22
g9
(g10
g11
(F0.69
F0.74
F0.78
tp70
tp71
Rp72
sg26
F0.001
sg27
g9
(g10
g11
(g28
(F1.45
F-0.0493
tp73
Rp74
g28
(F1.45
F-0.0454
tp75
Rp76
g28
(F1.45
F-0.042
tp77
Rp78
tp79
tp80
Rp81
sg38
F10.0
sg39
F1.7
ssS'spherical_absorbing_0.12_ssa_0.9_flat'
p82
(dp83
g3
F0.06
sg4
F0.75
sg5
F2.0
sg6
S'spherical_absorbing_0.12_ssa_0.9_flat(sulfate,seasalt,organic)'
p84
sg8
g9
(g10
g11
(F0.564
F0.612
F0.66
tp85
tp86
Rp87
sg15
F0.0
sg16
F0.12
sg17
g9
(g10
g11
(F9.429999999999999e-15
F1.41e-14
F2.1299999999999998e-14
tp88
tp89
Rp90
sg21
F1.77
sg22
g9
(g10
g11
(F0.9
F0.9
F0.9
tp91
tp92
Rp93
sg26
F0.001
sg27
g9
(g10
g11
(g28
(F1.45
F-0.0126
tp94
Rp95
g28
(F1.45
F-0.0146
tp96
Rp97
g28
(F1.45
F-0.0167
tp98
Rp99
tp100
tp101
Rp102
sg38
F10.0
sg39
F1.7
ssS'spherical_nonabsorbing_0.57'
p103
(dp104
g3
F0.24
sg4
F4.0
sg5
F2.0
sg6
S'spherical_nonabsorbing_0.57(sulfate,seasalt,organic)'
p105
sg8
g9
(g10
g11
(F0.725
F0.722
F0.718
tp106
tp107
Rp108
sg15
F0.0
sg16
F0.57
sg17
g9
(g10
g11
(F1.03e-12
F1.04e-12
F1.02e-12
tp109
tp110
Rp111
sg21
F1.91
sg22
g9
(g10
g11
(F1.0
F1.0
F1.0
tp112
tp113
Rp114
sg26
F0.01
sg27
g9
(g10
g11
(g28
(F1.45
F-0.0
tp115
Rp116
g28
(F1.45
F-0.0
tp117
Rp118
g28
(F1.45
F-0.0
tp119
Rp120
tp121
tp122
Rp123
sg38
F10.0
sg39
F1.8
ssS'spherical_nonabsorbing_1.28'
p124
(dp125
g3
F0.5
sg4
F8.0
sg5
F2.0
sg6
S'spherical_nonabsorbing_1.28(seasalt,organic)'
p126
sg8
g9
(g10
g11
(F0.721
F0.728
F0.741
tp127
tp128
Rp129
sg15
F0.0
sg16
F1.28
sg17
g9
(g10
g11
(F4.35e-12
F4.1900000000000005e-12
F4.0199999999999994e-12
tp130
tp131
Rp132
sg21
F1.99
sg22
g9
(g10
g11
(F1.0
F1.0
F1.0
tp133
tp134
Rp135
sg26
F0.01
sg27
g9
(g10
g11
(g28
(F1.45
F-0.0
tp136
Rp137
g28
(F1.45
F-0.0
tp138
Rp139
g28
(F1.45
F-0.0
tp140
Rp141
tp142
tp143
Rp144
sg38
F10.0
sg39
F1.85
ssS'spherical_nonabsorbing_0.12'
p145
(dp146
g3
F0.06
sg4
F0.75
sg5
F2.0
sg6
S'spherical_nonabsorbing_0.12(sulfate,seasalt,organic)'
p147
sg8
g9
(g10
g11
(F0.563
F0.609
F0.654
tp148
tp149
Rp150
sg15
F0.0
sg16
F0.12
sg17
g9
(g10
g11
(F8.85e-15
F1.34e-14
F2.07e-14
tp151
tp152
Rp153
sg21
F1.77
sg22
g9
(g10
g11
(F1.0
F1.0
F1.0
tp154
tp155
Rp156
sg26
F0.001
sg27
g9
(g10
g11
(g28
(F1.45
F-0.0
tp157
Rp158
g28
(F1.45
F-0.0
tp159
Rp160
g28
(F1.45
F-0.0
tp161
Rp162
tp163
tp164
Rp165
sg38
F10.0
sg39
F1.7
ssS'spherical_absorbing_0.57_ssa_green_0.94'
p166
(dp167
g3
F0.24
sg4
F4.0
sg5
F2.0
sg6
S'spherical_absorbing_0.57_ssa_green_0.94(sulfate,seasalt,organic)'
p168
sg8
g9
(g10
g11
(F0.746
F0.739
F0.732
tp169
tp170
Rp171
sg15
F0.0
sg16
F0.57
sg17
g9
(g10
g11
(F1.02e-12
F1.04e-12
F1.02e-12
tp172
tp173
Rp174
sg21
F1.91
sg22
g9
(g10
g11
(F0.92
F0.94
F0.95
tp175
tp176
Rp177
sg26
F0.01
sg27
g9
(g10
g11
(g28
(F1.45
F-0.0099
tp178
Rp179
g28
(F1.45
F-0.006
tp180
Rp181
g28
(F1.45
F-0.00385
tp182
Rp183
tp184
tp185
Rp186
sg38
F10.0
sg39
F1.8
ssS'spherical_absorbing_0.12_ssa_green_0.84'
p187
(dp188
g3
F0.06
sg4
F0.75
sg5
F2.0
sg6
S'spherical_absorbing_0.12_ssa_green_0.84(sulfate,seasalt,organic)'
p189
sg8
g9
(g10
g11
(F0.564
F0.613
F0.662
tp190
tp191
Rp192
sg15
F0.0
sg16
F0.12
sg17
g9
(g10
g11
(F9.979999999999999e-15
F1.45e-14
F2.16e-14
tp193
tp194
Rp195
sg21
F1.77
sg22
g9
(g10
g11
(F0.82
F0.84
F0.86
tp196
tp197
Rp198
sg26
F0.001
sg27
g9
(g10
g11
(g28
(F1.45
F-0.0245
tp199
Rp200
g28
(F1.45
F-0.0249
tp201
Rp202
g28
(F1.45
F-0.0244
tp203
Rp204
tp205
tp206
Rp207
sg38
F10.0
sg39
F1.7
ssS'spherical_absorbing_0.26_ssa_green_0.94'
p208
(dp209
g3
F0.12
sg4
F1.5
sg5
F2.0
sg6
S'spherical_absorbing_0.26_ssa_green_0.94(sulfate,seasalt,organic)'
p210
sg8
g9
(g10
g11
(F0.713
F0.727
F0.737
tp211
tp212
Rp213
sg15
F0.0
sg16
F0.26
sg17
g9
(g10
g11
(F1.5e-13
F1.8099999999999999e-13
F2.14e-13
tp214
tp215
Rp216
sg21
F1.84
sg22
g9
(g10
g11
(F0.92
F0.94
F0.95
tp217
tp218
Rp219
sg26
F0.01
sg27
g9
(g10
g11
(g28
(F1.45
F-0.0141
tp220
Rp221
g28
(F1.45
F-0.0102
tp222
Rp223
g28
(F1.45
F-0.0077
tp224
Rp225
tp226
tp227
Rp228
sg38
F10.0
sg39
F1.75
ssS'spherical_absorbing_0.06_ssa_green_0.84'
p229
(dp230
g3
F0.03
sg4
F0.4
sg5
F2.0
sg6
S'spherical_absorbing_0.06_ssa_green_0.84(sulfate,seasalt,organic)'
p231
sg8
g9
(g10
g11
(F0.286
F0.351
F0.43
tp232
tp233
Rp234
sg15
F0.0
sg16
F0.06
sg17
g9
(g10
g11
(F2.63e-16
F4.639999999999999e-16
F8.76e-16
tp235
tp236
Rp237
sg21
F1.7
sg22
g9
(g10
g11
(F0.82
F0.84
F0.86
tp238
tp239
Rp240
sg26
F0.001
sg27
g9
(g10
g11
(g28
(F1.45
F-0.00762
tp241
Rp242
g28
(F1.45
F-0.0094
tp243
Rp244
g28
(F1.45
F-0.0115
tp245
Rp246
tp247
tp248
Rp249
sg38
F10.0
sg39
F1.65
ssS'spherical_absorbing_0.12_ssa_green_0.8'
p250
(dp251
g3
F0.06
sg4
F0.75
sg5
F2.0
sg6
S'spherical_absorbing_0.12_ssa_green_0.8(sulfate,seasalt,organic)'
p252
sg8
g9
(g10
g11
(F0.564
F0.614
F0.664
tp253
tp254
Rp255
sg15
F0.0
sg16
F0.12
sg17
g9
(g10
g11
(F1.03e-14
F1.4899999999999998e-14
F2.19e-14
tp256
tp257
Rp258
sg21
F1.77
sg22
g9
(g10
g11
(F0.773
F0.8
F0.821
tp259
tp260
Rp261
sg26
F0.001
sg27
g9
(g10
g11
(g28
(F1.45
F-0.0325
tp262
Rp263
g28
(F1.45
F-0.0325
tp264
Rp265
g28
(F1.45
F-0.0325
tp266
Rp267
tp268
tp269
Rp270
sg38
F10.0
sg39
F1.7
ssS'spherical_absorbing_0.12_ssa_green_0.9'
p271
(dp272
g3
F0.06
sg4
F0.75
sg5
F2.0
sg6
S'spherical_absorbing_0.12_ssa_green_0.9(sulfate,seasalt,organic)'
p273
sg8
g9
(g10
g11
(F0.564
F0.612
F0.659
tp274
tp275
Rp276
sg15
F0.0
sg16
F0.12
sg17
g9
(g10
g11
(F9.53e-15
F1.41e-14
F2.12e-14
tp277
tp278
Rp279
sg21
F1.77
sg22
g9
(g10
g11
(F0.885
F0.9
F0.911
tp280
tp281
Rp282
sg26
F0.001
sg27
g9
(g10
g11
(g28
(F1.45
F-0.0147
tp283
Rp284
g28
(F1.45
F-0.0147
tp285
Rp286
g28
(F1.45
F-0.0147
tp287
Rp288
tp289
tp290
Rp291
sg38
F10.0
sg39
F1.7
ssS'spherical_absorbing_2.80'
p292
(dp293
g3
F1.0
sg4
F50.0
sg5
F2.0
sg6
S'spherical_absorbing_2.80(seasalt,organic)'
p294
sg8
g9
(g10
g11
(F0.763
F0.775
F0.786
tp295
tp296
Rp297
sg15
F0.0
sg16
F2.8
sg17
g9
(g10
g11
(F1.65e-11
F1.62e-11
F1.59e-11
tp298
tp299
Rp300
sg21
F2.13
sg22
g9
(g10
g11
(F0.69
F0.74
F0.78
tp301
tp302
Rp303
sg26
F0.1
sg27
g9
(g10
g11
(g28
(F1.45
F-0.0
tp304
Rp305
g28
(F1.45
F-0.0
tp306
Rp307
g28
(F1.45
F-0.0
tp308
Rp309
tp310
tp311
Rp312
sg38
F10.0
sg39
F1.9
ssS'spherical_absorbing_0.12_ssa_green_0.8_rising'
p313
(dp314
g3
F0.06
sg4
F0.75
sg5
F2.0
sg6
S'spherical_absorbing_0.12_ssa_green_0.8_rising(sulfate,seasalt,organic)'
p315
sg8
g9
(g10
g11
(F0.564
F0.614
F0.665
tp316
tp317
Rp318
sg15
F0.0
sg16
F0.12
sg17
g9
(g10
g11
(F9.93e-15
F1.4899999999999998e-14
F2.22e-14
tp319
tp320
Rp321
sg21
F1.77
sg22
g9
(g10
g11
(F0.826
F0.8
F0.779
tp322
tp323
Rp324
sg26
F0.001
sg27
g9
(g10
g11
(g28
(F1.45
F-0.0235
tp325
Rp326
g28
(F1.45
F-0.0325
tp327
Rp328
g28
(F1.45
F-0.0422
tp329
Rp330
tp331
tp332
Rp333
sg38
F10.0
sg39
F1.7
ssS'spherical_nonabsorbing_isotropic_2.80'
p334
(dp335
g3
F1.0
sg4
F50.0
sg5
F2.0
sg6
S'spherical_nonabsorbing_isotropic_2.80(seasalt,organic)'
p336
sg8
g9
(g10
g11
(F0.0
F0.0
F0.0
tp337
tp338
Rp339
sg15
F0.0
sg16
F0.0
sg17
g9
(g10
g11
(F1.65e-11
F1.62e-11
F1.59e-11
tp340
tp341
Rp342
sg21
F2.13
sg22
g9
(g10
g11
(F1.0
F1.0
F1.0
tp343
tp344
Rp345
sg26
F0.1
sg27
g9
(g10
g11
(g28
(F1.45
F-0.0
tp346
Rp347
g28
(F1.45
F-0.0
tp348
Rp349
g28
(F1.45
F-0.0
tp350
Rp351
tp352
tp353
Rp354
sg38
F10.0
sg39
F1.9
ssS'spherical_absorbing_0.12_ssa_green_0.94'
p355
(dp356
g3
F0.06
sg4
F0.75
sg5
F2.0
sg6
S'spherical_absorbing_0.12_ssa_green_0.94(sulfate,seasalt,organic)'
p357
sg8
g9
(g10
g11
(F0.563
F0.611
F0.657
tp358
tp359
Rp360
sg15
F0.0
sg16
F0.12
sg17
g9
(g10
g11
(F9.31e-15
F1.38e-14
F2.0899999999999998e-14
tp361
tp362
Rp363
sg21
F1.77
sg22
g9
(g10
g11
(F0.92
F0.94
F0.95
tp364
tp365
Rp366
sg26
F0.001
sg27
g9
(g10
g11
(g28
(F1.45
F-0.00986
tp367
Rp368
g28
(F1.45
F-0.00846
tp369
Rp370
g28
(F1.45
F-0.00795
tp371
Rp372
tp373
tp374
Rp375
sg38
F10.0
sg39
F1.7
ssS'spheroidal_mode2_h1'
p376
(dp377
g3
F1.0
sg4
F6.0
sg5
F10.0
sg6
S'spheroidal_mode2_h1(dust)'
p378
sg8
g9
(g10
g11
(F0.741
F0.772
F0.791
tp379
tp380
Rp381
sg15
F3.0
sg16
F0.0
sg17
g9
(g10
g11
(F1.58e-11
F1.5499999999999998e-11
F1.53e-11
tp382
tp383
Rp384
sg21
F2.6
sg22
g9
(g10
g11
(F0.971
F0.902
F0.81
tp385
tp386
Rp387
sg26
F0.1
sg27
g9
(g10
g11
(g28
(F1.51
F-0.00065
tp388
Rp389
g28
(F1.51
F-0.0021
tp390
Rp391
g28
(F1.51
F-0.00411
tp392
Rp393
tp394
tp395
Rp396
sg38
F6.0
sg39
F2.0
ssS'spherical_nonabsorbing_0.26'
p397
(dp398
g3
F0.12
sg4
F1.5
sg5
F2.0
sg6
S'spherical_nonabsorbing_0.26(sulfate,seasalt,organic)'
p399
sg8
g9
(g10
g11
(F0.703
F0.717
F0.726
tp400
tp401
Rp402
sg15
F0.0
sg16
F0.26
sg17
g9
(g10
g11
(F1.5e-13
F1.8199999999999998e-13
F2.16e-13
tp403
tp404
Rp405
sg21
F1.84
sg22
g9
(g10
g11
(F1.0
F1.0
F1.0
tp406
tp407
Rp408
sg26
F0.01
sg27
g9
(g10
g11
(g28
(F1.45
F-0.0
tp409
Rp410
g28
(F1.45
F-0.0
tp411
Rp412
g28
(F1.45
F-0.0
tp413
Rp414
tp415
tp416
Rp417
sg38
F10.0
sg39
F1.75
ssS'spherical_nonabsorbing_0.06'
p418
(dp419
g3
F0.03
sg4
F0.4
sg5
F2.0
sg6
S'spherical_nonabsorbing_0.06(sulfate,seasalt,organic)'
p420
sg8
g9
(g10
g11
(F0.287
F0.352
F0.431
tp421
tp422
Rp423
sg15
F0.0
sg16
F0.06
sg17
g9
(g10
g11
(F2.1699999999999998e-16
F3.96e-16
F7.72e-16
tp424
tp425
Rp426
sg21
F1.7
sg22
g9
(g10
g11
(F1.0
F1.0
F1.0
tp427
tp428
Rp429
sg26
F0.001
sg27
g9
(g10
g11
(g28
(F1.45
F-0.0
tp430
Rp431
g28
(F1.45
F-0.0
tp432
Rp433
g28
(F1.45
F-0.0
tp434
Rp435
tp436
tp437
Rp438
sg38
F10.0
sg39
F1.65
ssS'grains_mode1_h1'
p439
(dp440
g3
F0.5
sg4
F1.0
sg5
F10.0
sg6
S'grains_mode1_h1(dust)'
p441
sg8
g9
(g10
g11
(F0.729
F0.711
F0.705
tp442
tp443
Rp444
sg15
F3.0
sg16
F0.0
sg17
g9
(g10
g11
(F3.37e-12
F3.17e-12
F2.8399999999999996e-12
tp445
tp446
Rp447
sg21
F2.6
sg22
g9
(g10
g11
(F0.994
F0.977
F0.919
tp448
tp449
Rp450
sg26
F0.1
sg27
g9
(g10
g11
(g28
(F1.51
F-0.00065
tp451
Rp452
g28
(F1.51
F-0.0021
tp453
Rp454
g28
(F1.5
F-0.0041
tp455
Rp456
tp457
tp458
Rp459
sg38
F6.0
sg39
F1.5
ssS'spherical_nonabsorbing_2.80'
p460
(dp461
g3
F1.0
sg4
F50.0
sg5
F2.0
sg6
S'spherical_nonabsorbing_2.80(seasalt,organic)'
p462
sg8
g9
(g10
g11
(F0.763
F0.775
F0.786
tp463
tp464
Rp465
sg15
F0.0
sg16
F2.8
sg17
g9
(g10
g11
(F1.65e-11
F1.62e-11
F1.59e-11
tp466
tp467
Rp468
sg21
F2.13
sg22
g9
(g10
g11
(F1.0
F1.0
F1.0
tp469
tp470
Rp471
sg26
F0.1
sg27
g9
(g10
g11
(g28
(F1.45
F-0.0
tp472
Rp473
g28
(F1.45
F-0.0
tp474
Rp475
g28
(F1.45
F-0.0
tp476
Rp477
tp478
tp479
Rp480
sg38
F10.0
sg39
F1.9
ssS'spherical_absorbing_0.12_ssa_0.8_flat'
p481
(dp482
g3
F0.06
sg4
F0.75
sg5
F2.0
sg6
S'spherical_absorbing_0.12_ssa_0.8_flat(sulfate,seasalt,organic)'
p483
sg8
g9
(g10
g11
(F0.564
F0.614
F0.664
tp484
tp485
Rp486
sg15
F0.0
sg16
F0.12
sg17
g9
(g10
g11
(F1.01e-14
F1.4899999999999998e-14
F2.1999999999999998e-14
tp487
tp488
Rp489
sg21
F1.77
sg22
g9
(g10
g11
(F0.8
F0.8
F0.8
tp490
tp491
Rp492
sg26
F0.001
sg27
g9
(g10
g11
(g28
(F1.45
F-0.0279
tp493
Rp494
g28
(F1.45
F-0.0325
tp495
Rp496
g28
(F1.45
F-0.0373
tp497
Rp498
tp499
tp500
Rp501
sg38
F10.0
sg39
F1.7
ss.